(dp1
S'term'
p2
(dp3
S'length'
p4
I512
sS'unique'
p5
I00
sS'sortable'
p6
I6
sS'sql'
p7
S'CHAR(512)'
p8
sS'notnull'
p9
I00
sS'type'
p10
S'string'
p11
ssS'quarter'
p12
(dp13
g4
I512
sg5
I00
sg6
I4
sg7
S'CHAR(512)'
p14
sg9
I00
sg10
g11
ssS'user_id'
p15
(dp16
g4
I512
sg5
I00
sg6
I11
sg7
S'INTEGER REFERENCES auth_user (id) ON DELETE CASCADE  '
p17
sg9
I00
sg10
S'reference auth_user'
<<<<<<< HEAD
p25
ssS'description'
p26
(dp27
S'sortable'
p28
L3L
sS'sql'
p29
S'TEXT'
p30
sS'length'
p31
L32768L
sS'notnull'
p32
L0L
sS'unique'
p33
L0L
sS'type'
p34
S'text'
p35
ssS'syllabus'
p36
(dp37
=======
p18
ssS'difficulty'
p19
(dp20
>>>>>>> master
g4
I32768
sg5
I00
sg6
I3
sg7
<<<<<<< HEAD
S'TEXT'
p38
sg9
I00
sg10
S'text'
p39
=======
S'DOUBLE'
p21
sg9
I00
sg10
S'double'
p22
>>>>>>> master
ssS'enjoyment'
p23
(dp24
g4
I512
sg5
I00
sg6
I8
sg7
S'DOUBLE'
p25
sg9
I00
sg10
<<<<<<< HEAD
S'double'
p43
ssS'professor_id'
p44
(dp45
=======
g22
ssS'professor_id'
p26
(dp27
>>>>>>> master
g4
I512
sg5
I00
sg6
I10
sg7
S'INTEGER REFERENCES professor (id) ON DELETE CASCADE  '
<<<<<<< HEAD
p46
=======
p28
>>>>>>> master
sg9
I00
sg10
S'reference professor'
<<<<<<< HEAD
p47
ssS'datetime'
p48
(dp49
=======
p29
ssS'datetime'
p30
(dp31
>>>>>>> master
g4
I512
sg5
I00
sg6
I12
sg7
S'TIMESTAMP'
<<<<<<< HEAD
p50
sg9
I00
sg10
S'datetime'
p51
ssS'difficulty'
p52
(dp53
=======
p32
sg9
I00
sg10
g30
ssS'syllabus'
p33
(dp34
>>>>>>> master
g4
I512
sg5
I00
sg6
I7
sg7
<<<<<<< HEAD
S'DOUBLE'
p54
sg9
I00
sg10
g43
ssS'textbook_ids'
p55
(dp56
g4
I512
sg5
I00
sg6
I9
sg7
S'TEXT'
p57
sg9
I00
sg10
S'list:reference textbook'
p58
ssS'yr'
p59
(dp60
=======
S'TEXT'
p35
sg9
I00
sg10
S'text'
p36
ssS'textbook_ids'
p37
(dp38
>>>>>>> master
g4
I512
sg5
I00
sg6
I5
sg7
<<<<<<< HEAD
S'INTEGER'
p61
sg9
I00
sg10
S'integer'
p62
ssS'course_id'
p63
(dp64
=======
S'TEXT'
p39
sg9
I00
sg10
S'list:reference textbook'
p40
ssS'course_id'
p41
(dp42
>>>>>>> master
g4
I512
sg5
I00
sg6
I2
sg7
S'INTEGER REFERENCES course (id) ON DELETE CASCADE  '
<<<<<<< HEAD
p65
=======
p43
>>>>>>> master
sg9
I00
sg10
S'reference course'
<<<<<<< HEAD
p66
ssS'quarter'
p67
(dp68
=======
p44
ssS'yr'
p45
(dp46
>>>>>>> master
g4
I512
sg5
I00
sg6
I4
sg7
<<<<<<< HEAD
S'CHAR(512)'
p69
sg9
I00
sg10
g11
=======
S'INTEGER'
p47
sg9
I00
sg10
S'integer'
p48
>>>>>>> master
ssS'id'
p49
(dp50
g4
I512
sg5
I00
sg6
I1
sg7
S'INTEGER PRIMARY KEY AUTOINCREMENT'
p51
sg9
I00
sg10
g49
ss.